target datalayout = "e-m:e-p270:32:32-p271:32:32-p272:64:64-i64:64-i128:128-f80:128-n8:16:32:64-S128"
target triple = "x86_64-pc-linux-gnu"

%"struct.std::type_index" = type { ptr }
%"struct.pkpy::Str" = type { i32, i8, ptr, [16 x i8] }
%"class.std::type_info" = type { ptr, ptr }

@.str = private unnamed_addr constant [24 x i8] c"bad_any_cast: expected \00", align 1
@.str.1 = private unnamed_addr constant [7 x i8] c", got \00", align 1
@_ZTISt13runtime_error = external constant ptr

; Function Attrs: mustprogress nounwind uwtable
define linkonce_odr noundef ptr @_ZNKSt9type_info4nameEv(ptr noundef nonnull align 8 dereferenceable(16) %0) #5 comdat align 2 {
  %2 = alloca ptr, align 8
  store ptr %0, ptr %2, align 8
  %3 = load ptr, ptr %2, align 8
  %4 = getelementptr inbounds %"class.std::type_info", ptr %3, i32 0, i32 1
  %5 = load ptr, ptr %4, align 8
  %6 = getelementptr inbounds i8, ptr %5, i64 0
  %7 = load i8, ptr %6, align 1
  %8 = sext i8 %7 to i32
  %9 = icmp eq i32 %8, 42
  br i1 %9, label %10, label %14

10:                                               ; preds = %1
  %11 = getelementptr inbounds %"class.std::type_info", ptr %3, i32 0, i32 1
  %12 = load ptr, ptr %11, align 8
  %13 = getelementptr inbounds i8, ptr %12, i64 1
  br label %17

14:                                               ; preds = %1
  %15 = getelementptr inbounds %"class.std::type_info", ptr %3, i32 0, i32 1
  %16 = load ptr, ptr %15, align 8
  br label %17

17:                                               ; preds = %14, %10
  %18 = phi ptr [ %13, %10 ], [ %16, %14 ]
  ret ptr %18
}

; Function Attrs: mustprogress nounwind uwtable
define linkonce_odr noundef ptr @_ZNK4pkpy3Str5c_strEv(ptr noundef nonnull align 8 dereferenceable(32) %0) #5 comdat align 2 {
  %2 = alloca ptr, align 8
  store ptr %0, ptr %2, align 8
  %3 = load ptr, ptr %2, align 8
  %4 = getelementptr inbounds %"struct.pkpy::Str", ptr %3, i32 0, i32 2
  %5 = load ptr, ptr %4, align 8
  ret ptr %5
}

; Function Attrs: mustprogress nounwind uwtable
define linkonce_odr noundef ptr @_ZNKSt10type_index4nameEv(ptr noundef nonnull align 8 dereferenceable(8) %0) #5 comdat align 2 {
  %2 = alloca ptr, align 8
  store ptr %0, ptr %2, align 8
  %3 = load ptr, ptr %2, align 8
  %4 = getelementptr inbounds %"struct.std::type_index", ptr %3, i32 0, i32 0
  %5 = load ptr, ptr %4, align 8
  %6 = call noundef ptr @_ZNKSt9type_info4nameEv(ptr noundef nonnull align 8 dereferenceable(16) %5) #3
  ret ptr %6
}

; Function Attrs: mustprogress uwtable
define void @_ZN4pkpy3any14__bad_any_castESt10type_indexS1_(ptr %0, ptr %1) #4 align 2 personality ptr @__gxx_personality_v0 {
  %3 = alloca %"struct.std::type_index", align 8
  %4 = alloca %"struct.std::type_index", align 8
  %5 = alloca %"struct.pkpy::Str", align 8
  %6 = alloca ptr, align 8
  %7 = alloca ptr, align 8
  %8 = alloca ptr, align 8
  %9 = alloca i32, align 4
  %10 = getelementptr inbounds %"struct.std::type_index", ptr %3, i32 0, i32 0
  store ptr %0, ptr %10, align 8
  %11 = getelementptr inbounds %"struct.std::type_index", ptr %4, i32 0, i32 0
  store ptr %1, ptr %11, align 8
  %12 = call noundef ptr @_ZNKSt10type_index4nameEv(ptr noundef nonnull align 8 dereferenceable(8) %3) #3
  store ptr %12, ptr %6, align 8
  %13 = call noundef ptr @_ZNKSt10type_index4nameEv(ptr noundef nonnull align 8 dereferenceable(8) %4) #3
  store ptr %13, ptr %7, align 8
  call void @_ZN4pkpy2_SIJRA24_KcPS1_RA7_S1_S4_EEENS_3StrEDpOT_(ptr dead_on_unwind writable sret(%"struct.pkpy::Str") align 8 %5, ptr noundef nonnull align 1 dereferenceable(24) @.str, ptr noundef nonnull align 8 dereferenceable(8) %6, ptr noundef nonnull align 1 dereferenceable(7) @.str.1, ptr noundef nonnull align 8 dereferenceable(8) %7)
  %14 = call ptr @__cxa_allocate_exception(i64 16) #3
  %15 = invoke noundef ptr @_ZNK4pkpy3Str5c_strEv(ptr noundef nonnull align 8 dereferenceable(32) %5)
          to label %16 unwind label %18

16:                                               ; preds = %2
  invoke void @_ZNSt13runtime_errorC1EPKc(ptr noundef nonnull align 8 dereferenceable(16) %14, ptr noundef %15)
          to label %17 unwind label %18

17:                                               ; preds = %16
  invoke void @__cxa_throw(ptr %14, ptr @_ZTISt13runtime_error, ptr @_ZNSt13runtime_errorD1Ev) #7
          to label %32 unwind label %22

18:                                               ; preds = %16, %2
  %19 = landingpad { ptr, i32 }
          cleanup
  %20 = extractvalue { ptr, i32 } %19, 0
  store ptr %20, ptr %8, align 8
  %21 = extractvalue { ptr, i32 } %19, 1
  store i32 %21, ptr %9, align 4
  call void @__cxa_free_exception(ptr %14) #3
  br label %26

22:                                               ; preds = %17
  %23 = landingpad { ptr, i32 }
          cleanup
  %24 = extractvalue { ptr, i32 } %23, 0
  store ptr %24, ptr %8, align 8
  %25 = extractvalue { ptr, i32 } %23, 1
  store i32 %25, ptr %9, align 4
  br label %26

26:                                               ; preds = %22, %18
  call void @_ZN4pkpy3StrD1Ev(ptr noundef nonnull align 8 dereferenceable(32) %5) #3
  br label %27

27:                                               ; preds = %26
  %28 = load ptr, ptr %8, align 8
  %29 = load i32, ptr %9, align 4
  %30 = insertvalue { ptr, i32 } poison, ptr %28, 0
  %31 = insertvalue { ptr, i32 } %30, i32 %29, 1
  resume { ptr, i32 } %31

32:                                               ; preds = %17
  unreachable
}