; Function Attrs: mustprogress noreturn uwtable
define void @_ZN4pkpy3any14__bad_any_castESt10type_indexS1_(ptr nocapture readonly %0, ptr nocapture readonly %1) local_unnamed_addr #3 align 2 personality ptr @__gxx_personality_v0 {
  %3 = alloca %"struct.pkpy::Str", align 8
  %4 = alloca ptr, align 8
  %5 = alloca ptr, align 8
  %6 = getelementptr inbounds i8, ptr %0, i64 8
  %7 = load ptr, ptr %6, align 8
  %8 = load i8, ptr %7, align 1
  %9 = icmp eq i8 %8, 42
  %.idx.i.i = zext i1 %9 to i64
  %10 = getelementptr inbounds i8, ptr %7, i64 %.idx.i.i
  store ptr %10, ptr %4, align 8
  %11 = getelementptr inbounds i8, ptr %1, i64 8
  %12 = load ptr, ptr %11, align 8
  %13 = load i8, ptr %12, align 1
  %14 = icmp eq i8 %13, 42
  %.idx.i.i3 = zext i1 %14 to i64
  %15 = getelementptr inbounds i8, ptr %12, i64 %.idx.i.i3
  store ptr %15, ptr %5, align 8
  call void @_ZN4pkpy2_SIJRA24_KcPS1_RA7_S1_S4_EEENS_3StrEDpOT_(ptr dead_on_unwind nonnull writable sret(%"struct.pkpy::Str") align 8 %3, ptr noundef nonnull align 1 dereferenceable(24) @.str, ptr noundef nonnull align 8 dereferenceable(8) %4, ptr noundef nonnull align 1 dereferenceable(7) @.str.1, ptr noundef nonnull align 8 dereferenceable(8) %5)
  %16 = call ptr @__cxa_allocate_exception(i64 16) #10
  %17 = getelementptr inbounds i8, ptr %3, i64 8
  %18 = load ptr, ptr %17, align 8
  invoke void @_ZNSt13runtime_errorC1EPKc(ptr noundef nonnull align 8 dereferenceable(16) %16, ptr noundef %18)
          to label %19 unwind label %20

19:                                               ; preds = %2
  invoke void @__cxa_throw(ptr nonnull %16, ptr nonnull @_ZTISt13runtime_error, ptr nonnull @_ZNSt13runtime_errorD1Ev) #11
          to label %25 unwind label %22

20:                                               ; preds = %2
  %21 = landingpad { ptr, i32 }
          cleanup
  call void @__cxa_free_exception(ptr %16) #10
  br label %24

22:                                               ; preds = %19
  %23 = landingpad { ptr, i32 }
          cleanup
  br label %24

24:                                               ; preds = %22, %20
  %.pn = phi { ptr, i32 } [ %23, %22 ], [ %21, %20 ]
  call void @_ZN4pkpy3StrD1Ev(ptr noundef nonnull align 8 dereferenceable(32) %3) #10
  resume { ptr, i32 } %.pn

25:                                               ; preds = %19
  unreachable
}